target datalayout = "e-m:e-p270:32:32-p271:32:32-p272:64:64-i64:64-i128:128-f80:128-n8:16:32:64-S128"
target triple = "x86_64-pc-linux-gnu"

%struct.mempacket_test_ctx_st = type { ptr, i16, i32, i32, i32, i32, i32, i32, i32, i32 }
%struct.mempacket_st = type { ptr, i32, i32, i32 }

; Function Attrs: inlinehint nounwind uwtable
define internal i32 @sk_MEMPACKET_insert(ptr noundef %0, ptr noundef %1, i32 noundef %2) #3 {
  %4 = alloca ptr, align 8
  %5 = alloca ptr, align 8
  %6 = alloca i32, align 4
  store ptr %0, ptr %4, align 8, !tbaa !43
  store ptr %1, ptr %5, align 8, !tbaa !24
  store i32 %2, ptr %6, align 4, !tbaa !13
  %7 = load ptr, ptr %4, align 8, !tbaa !43
  %8 = load ptr, ptr %5, align 8, !tbaa !24
  %9 = load i32, ptr %6, align 4, !tbaa !13
  %10 = call i32 @OPENSSL_sk_insert(ptr noundef %7, ptr noundef %8, i32 noundef %9)
  ret i32 %10
}

; Function Attrs: inlinehint nounwind uwtable
define internal ptr @sk_MEMPACKET_delete(ptr noundef %0, i32 noundef %1) #3 {
  %3 = alloca ptr, align 8
  %4 = alloca i32, align 4
  store ptr %0, ptr %3, align 8, !tbaa !43
  store i32 %1, ptr %4, align 4, !tbaa !13
  %5 = load ptr, ptr %3, align 8, !tbaa !43
  %6 = load i32, ptr %4, align 4, !tbaa !13
  %7 = call ptr @OPENSSL_sk_delete(ptr noundef %5, i32 noundef %6)
  ret ptr %7
}

; Function Attrs: inlinehint nounwind uwtable
define internal ptr @sk_MEMPACKET_value(ptr noundef %0, i32 noundef %1) #3 {
  %3 = alloca ptr, align 8
  %4 = alloca i32, align 4
  store ptr %0, ptr %3, align 8, !tbaa !43
  store i32 %1, ptr %4, align 4, !tbaa !13
  %5 = load ptr, ptr %3, align 8, !tbaa !43
  %6 = load i32, ptr %4, align 4, !tbaa !13
  %7 = call ptr @OPENSSL_sk_value(ptr noundef %5, i32 noundef %6)
  ret ptr %7
}

; Function Attrs: inlinehint nounwind uwtable
define internal i32 @sk_MEMPACKET_num(ptr noundef %0) #3 {
  %2 = alloca ptr, align 8
  store ptr %0, ptr %2, align 8, !tbaa !43
  %3 = load ptr, ptr %2, align 8, !tbaa !43
  %4 = call i32 @OPENSSL_sk_num(ptr noundef %3)
  ret i32 %4
}

; Function Attrs: nounwind uwtable
define dso_local i32 @mempacket_move_packet(ptr noundef %0, i32 noundef %1, i32 noundef %2) #0 {
  %4 = alloca i32, align 4
  %5 = alloca ptr, align 8
  %6 = alloca i32, align 4
  %7 = alloca i32, align 4
  %8 = alloca ptr, align 8
  %9 = alloca ptr, align 8
  %10 = alloca i32, align 4
  %11 = alloca i32, align 4
  %12 = alloca i32, align 4
  store ptr %0, ptr %5, align 8, !tbaa !9
  store i32 %1, ptr %6, align 4, !tbaa !13
  store i32 %2, ptr %7, align 4, !tbaa !13
  call void @llvm.lifetime.start.p0(i64 8, ptr %8) #10
  %13 = load ptr, ptr %5, align 8, !tbaa !9
  %14 = call ptr @BIO_get_data(ptr noundef %13)
  store ptr %14, ptr %8, align 8, !tbaa !18
  call void @llvm.lifetime.start.p0(i64 8, ptr %9) #10
  call void @llvm.lifetime.start.p0(i64 4, ptr %10) #10
  %15 = load ptr, ptr %8, align 8, !tbaa !18
  %16 = getelementptr inbounds nuw %struct.mempacket_test_ctx_st, ptr %15, i32 0, i32 0
  %17 = load ptr, ptr %16, align 8, !tbaa !20
  %18 = call i32 @sk_MEMPACKET_num(ptr noundef %17)
  store i32 %18, ptr %10, align 4, !tbaa !13
  call void @llvm.lifetime.start.p0(i64 4, ptr %11) #10
  %19 = load i32, ptr %6, align 4, !tbaa !13
  %20 = load i32, ptr %7, align 4, !tbaa !13
  %21 = icmp sge i32 %19, %20
  br i1 %21, label %22, label %23

22:                                               ; preds = %3
  store i32 0, ptr %4, align 4
  store i32 1, ptr %12, align 4
  br label %83

23:                                               ; preds = %3
  %24 = load i32, ptr %10, align 4, !tbaa !13
  %25 = load i32, ptr %7, align 4, !tbaa !13
  %26 = icmp sle i32 %24, %25
  br i1 %26, label %27, label %28

27:                                               ; preds = %23
  store i32 0, ptr %4, align 4
  store i32 1, ptr %12, align 4
  br label %83

28:                                               ; preds = %23
  %29 = load ptr, ptr %8, align 8, !tbaa !18
  %30 = getelementptr inbounds nuw %struct.mempacket_test_ctx_st, ptr %29, i32 0, i32 0
  %31 = load ptr, ptr %30, align 8, !tbaa !20
  %32 = load i32, ptr %7, align 4, !tbaa !13
  %33 = call ptr @sk_MEMPACKET_value(ptr noundef %31, i32 noundef %32)
  store ptr %33, ptr %9, align 8, !tbaa !24
  %34 = load ptr, ptr %9, align 8, !tbaa !24
  %35 = icmp eq ptr %34, null
  br i1 %35, label %36, label %37

36:                                               ; preds = %28
  store i32 0, ptr %4, align 4
  store i32 1, ptr %12, align 4
  br label %83

37:                                               ; preds = %28
  %38 = load ptr, ptr %8, align 8, !tbaa !18
  %39 = getelementptr inbounds nuw %struct.mempacket_test_ctx_st, ptr %38, i32 0, i32 0
  %40 = load ptr, ptr %39, align 8, !tbaa !20
  %41 = load i32, ptr %7, align 4, !tbaa !13
  %42 = call ptr @sk_MEMPACKET_delete(ptr noundef %40, i32 noundef %41)
  %43 = load ptr, ptr %9, align 8, !tbaa !24
  %44 = icmp ne ptr %42, %43
  br i1 %44, label %45, label %46

45:                                               ; preds = %37
  store i32 0, ptr %4, align 4
  store i32 1, ptr %12, align 4
  br label %83

46:                                               ; preds = %37
  %47 = load i32, ptr %7, align 4, !tbaa !13
  %48 = load i32, ptr %6, align 4, !tbaa !13
  %49 = sub nsw i32 %47, %48
  %50 = load ptr, ptr %9, align 8, !tbaa !24
  %51 = getelementptr inbounds nuw %struct.mempacket_st, ptr %50, i32 0, i32 2
  %52 = load i32, ptr %51, align 4, !tbaa !26
  %53 = sub i32 %52, %49
  store i32 %53, ptr %51, align 4, !tbaa !26
  %54 = load ptr, ptr %8, align 8, !tbaa !18
  %55 = getelementptr inbounds nuw %struct.mempacket_test_ctx_st, ptr %54, i32 0, i32 0
  %56 = load ptr, ptr %55, align 8, !tbaa !20
  %57 = load ptr, ptr %9, align 8, !tbaa !24
  %58 = load i32, ptr %6, align 4, !tbaa !13
  %59 = call i32 @sk_MEMPACKET_insert(ptr noundef %56, ptr noundef %57, i32 noundef %58)
  %60 = icmp sle i32 %59, 0
  br i1 %60, label %61, label %62

61:                                               ; preds = %46
  store i32 0, ptr %4, align 4
  store i32 1, ptr %12, align 4
  br label %83

62:                                               ; preds = %46
  %63 = load i32, ptr %6, align 4, !tbaa !13
  %64 = add nsw i32 %63, 1
  store i32 %64, ptr %11, align 4, !tbaa !13
  br label %65

65:                                               ; preds = %79, %62
  %66 = load i32, ptr %11, align 4, !tbaa !13
  %67 = load i32, ptr %7, align 4, !tbaa !13
  %68 = icmp sle i32 %66, %67
  br i1 %68, label %69, label %82

69:                                               ; preds = %65
  %70 = load ptr, ptr %8, align 8, !tbaa !18
  %71 = getelementptr inbounds nuw %struct.mempacket_test_ctx_st, ptr %70, i32 0, i32 0
  %72 = load ptr, ptr %71, align 8, !tbaa !20
  %73 = load i32, ptr %11, align 4, !tbaa !13
  %74 = call ptr @sk_MEMPACKET_value(ptr noundef %72, i32 noundef %73)
  store ptr %74, ptr %9, align 8, !tbaa !24
  %75 = load ptr, ptr %9, align 8, !tbaa !24
  %76 = getelementptr inbounds nuw %struct.mempacket_st, ptr %75, i32 0, i32 2
  %77 = load i32, ptr %76, align 4, !tbaa !26
  %78 = add i32 %77, 1
  store i32 %78, ptr %76, align 4, !tbaa !26
  br label %79

79:                                               ; preds = %69
  %80 = load i32, ptr %11, align 4, !tbaa !13
  %81 = add nsw i32 %80, 1
  store i32 %81, ptr %11, align 4, !tbaa !13
  br label %65, !llvm.loop !44

82:                                               ; preds = %65
  store i32 1, ptr %4, align 4
  store i32 1, ptr %12, align 4
  br label %83

83:                                               ; preds = %82, %61, %45, %36, %27, %22
  call void @llvm.lifetime.end.p0(i64 4, ptr %11) #10
  call void @llvm.lifetime.end.p0(i64 4, ptr %10) #10
  call void @llvm.lifetime.end.p0(i64 8, ptr %9) #10
  call void @llvm.lifetime.end.p0(i64 8, ptr %8) #10
  %84 = load i32, ptr %4, align 4
  ret i32 %84
}