; Function Attrs: nounwind uwtable
define dso_local range(i32 0, 2) i32 @mempacket_move_packet(ptr noundef %0, i32 noundef %1, i32 noundef %2) local_unnamed_addr #0 {
  %4 = tail call ptr @BIO_get_data(ptr noundef %0) #14
  %5 = load ptr, ptr %4, align 8, !tbaa !15
  %6 = tail call i32 @OPENSSL_sk_num(ptr noundef %5) #14
  %.not = icmp slt i32 %1, %2
  %.not29 = icmp sgt i32 %6, %2
  %or.cond = select i1 %.not, i1 %.not29, i1 false
  br i1 %or.cond, label %7, label %.loopexit

7:                                                ; preds = %3
  %8 = load ptr, ptr %4, align 8, !tbaa !15
  %9 = tail call ptr @OPENSSL_sk_value(ptr noundef %8, i32 noundef %2) #14
  %10 = icmp eq ptr %9, null
  br i1 %10, label %.loopexit, label %11

11:                                               ; preds = %7
  %12 = load ptr, ptr %4, align 8, !tbaa !15
  %13 = tail call ptr @OPENSSL_sk_delete(ptr noundef %12, i32 noundef %2) #14
  %.not30 = icmp eq ptr %13, %9
  br i1 %.not30, label %14, label %.loopexit

14:                                               ; preds = %11
  %.neg = sub i32 %1, %2
  %15 = getelementptr inbounds nuw i8, ptr %9, i64 12
  %16 = load i32, ptr %15, align 4, !tbaa !20
  %17 = add i32 %.neg, %16
  store i32 %17, ptr %15, align 4, !tbaa !20
  %18 = load ptr, ptr %4, align 8, !tbaa !15
  %19 = tail call i32 @OPENSSL_sk_insert(ptr noundef %18, ptr noundef nonnull %9, i32 noundef %1) #14
  %20 = icmp slt i32 %19, 1
  br i1 %20, label %.loopexit, label %.lr.ph

.lr.ph:                                           ; preds = %14, %.lr.ph
  %.0.in34 = phi i32 [ %.0, %.lr.ph ], [ %1, %14 ]
  %.0 = add nsw i32 %.0.in34, 1
  %21 = load ptr, ptr %4, align 8, !tbaa !15
  %22 = tail call ptr @OPENSSL_sk_value(ptr noundef %21, i32 noundef %.0) #14
  %23 = getelementptr inbounds nuw i8, ptr %22, i64 12
  %24 = load i32, ptr %23, align 4, !tbaa !20
  %25 = add i32 %24, 1
  store i32 %25, ptr %23, align 4, !tbaa !20
  %exitcond.not = icmp eq i32 %.0, %2
  br i1 %exitcond.not, label %.loopexit, label %.lr.ph, !llvm.loop !36

.loopexit:                                        ; preds = %.lr.ph, %14, %11, %7, %3
  %.025 = phi i32 [ 0, %3 ], [ 0, %7 ], [ 0, %11 ], [ 0, %14 ], [ 1, %.lr.ph ]
  ret i32 %.025
}